target datalayout = "e-m:e-p270:32:32-p271:32:32-p272:64:64-i64:64-i128:128-f80:128-n8:16:32:64-S128"
target triple = "x86_64-pc-linux-gnu"

%struct.Dar_RwrPar_t_ = type { i32, i32, i32, i32, i32, i32, i32, i32, i32, i32 }
%struct.Dar_RefPar_t_ = type { i32, i32, i32, i32, i32, i32, i32, i32 }

@.str = private unnamed_addr constant [12 x i8] c"Starting:  \00", align 1
@.str.1 = private unnamed_addr constant [12 x i8] c"Balance:   \00", align 1
@.str.2 = private unnamed_addr constant [12 x i8] c"Rewrite:   \00", align 1
@.str.3 = private unnamed_addr constant [12 x i8] c"Refactor:  \00", align 1
@.str.4 = private unnamed_addr constant [12 x i8] c"RewriteZ:  \00", align 1

; Function Attrs: nounwind uwtable
define ptr @Dar_ManCompress(ptr noundef %0, i32 noundef %1, i32 noundef %2, i32 noundef %3, i32 noundef %4) #0 {
  %6 = alloca ptr, align 8
  %7 = alloca i32, align 4
  %8 = alloca i32, align 4
  %9 = alloca i32, align 4
  %10 = alloca i32, align 4
  %11 = alloca ptr, align 8
  %12 = alloca %struct.Dar_RwrPar_t_, align 4
  %13 = alloca ptr, align 8
  %14 = alloca %struct.Dar_RefPar_t_, align 4
  %15 = alloca ptr, align 8
  store ptr %0, ptr %6, align 8, !tbaa !3
  store i32 %1, ptr %7, align 4, !tbaa !10
  store i32 %2, ptr %8, align 4, !tbaa !10
  store i32 %3, ptr %9, align 4, !tbaa !10
  store i32 %4, ptr %10, align 4, !tbaa !10
  call void @llvm.lifetime.start.p0(i64 8, ptr %11) #9
  call void @llvm.lifetime.start.p0(i64 40, ptr %12) #9
  call void @llvm.lifetime.start.p0(i64 8, ptr %13) #9
  store ptr %12, ptr %13, align 8, !tbaa !8
  call void @llvm.lifetime.start.p0(i64 32, ptr %14) #9
  call void @llvm.lifetime.start.p0(i64 8, ptr %15) #9
  store ptr %14, ptr %15, align 8, !tbaa !26
  %16 = load ptr, ptr %13, align 8, !tbaa !8
  call void @Dar_ManDefaultRwrParams(ptr noundef %16)
  %17 = load ptr, ptr %15, align 8, !tbaa !26
  call void @Dar_ManDefaultRefParams(ptr noundef %17)
  %18 = load i32, ptr %8, align 4, !tbaa !10
  %19 = load ptr, ptr %13, align 8, !tbaa !8
  %20 = getelementptr inbounds nuw %struct.Dar_RwrPar_t_, ptr %19, i32 0, i32 4
  store i32 %18, ptr %20, align 4, !tbaa !28
  %21 = load i32, ptr %8, align 4, !tbaa !10
  %22 = load ptr, ptr %15, align 8, !tbaa !26
  %23 = getelementptr inbounds nuw %struct.Dar_RefPar_t_, ptr %22, i32 0, i32 4
  store i32 %21, ptr %23, align 4, !tbaa !30
  %24 = load i32, ptr %9, align 4, !tbaa !10
  %25 = load ptr, ptr %13, align 8, !tbaa !8
  %26 = getelementptr inbounds nuw %struct.Dar_RwrPar_t_, ptr %25, i32 0, i32 6
  store i32 %24, ptr %26, align 4, !tbaa !34
  %27 = load ptr, ptr %13, align 8, !tbaa !8
  %28 = getelementptr inbounds nuw %struct.Dar_RwrPar_t_, ptr %27, i32 0, i32 8
  store i32 0, ptr %28, align 4, !tbaa !32
  %29 = load ptr, ptr %15, align 8, !tbaa !26
  %30 = getelementptr inbounds nuw %struct.Dar_RefPar_t_, ptr %29, i32 0, i32 6
  store i32 0, ptr %30, align 4, !tbaa !33
  %31 = load ptr, ptr %6, align 8, !tbaa !3
  %32 = call ptr @Aig_ManDupDfs(ptr noundef %31)
  store ptr %32, ptr %6, align 8, !tbaa !3
  %33 = load i32, ptr %10, align 4, !tbaa !10
  %34 = icmp ne i32 %33, 0
  br i1 %34, label %35, label %38

35:                                               ; preds = %5
  %36 = call i32 (ptr, ...) @printf(ptr noundef @.str)
  %37 = load ptr, ptr %6, align 8, !tbaa !3
  call void @Aig_ManPrintStats(ptr noundef %37)
  br label %38

38:                                               ; preds = %35, %5
  %39 = load ptr, ptr %6, align 8, !tbaa !3
  %40 = load ptr, ptr %13, align 8, !tbaa !8
  %41 = call i32 @Dar_ManRewrite(ptr noundef %39, ptr noundef %40)
  %42 = load ptr, ptr %6, align 8, !tbaa !3
  store ptr %42, ptr %11, align 8, !tbaa !3
  %43 = call ptr @Aig_ManDupDfs(ptr noundef %42)
  store ptr %43, ptr %6, align 8, !tbaa !3
  %44 = load ptr, ptr %11, align 8, !tbaa !3
  call void @Aig_ManStop(ptr noundef %44)
  %45 = load i32, ptr %10, align 4, !tbaa !10
  %46 = icmp ne i32 %45, 0
  br i1 %46, label %47, label %50

47:                                               ; preds = %38
  %48 = call i32 (ptr, ...) @printf(ptr noundef @.str.2)
  %49 = load ptr, ptr %6, align 8, !tbaa !3
  call void @Aig_ManPrintStats(ptr noundef %49)
  br label %50

50:                                               ; preds = %47, %38
  %51 = load ptr, ptr %6, align 8, !tbaa !3
  %52 = load ptr, ptr %15, align 8, !tbaa !26
  %53 = call i32 @Dar_ManRefactor(ptr noundef %51, ptr noundef %52)
  %54 = load ptr, ptr %6, align 8, !tbaa !3
  store ptr %54, ptr %11, align 8, !tbaa !3
  %55 = call ptr @Aig_ManDupDfs(ptr noundef %54)
  store ptr %55, ptr %6, align 8, !tbaa !3
  %56 = load ptr, ptr %11, align 8, !tbaa !3
  call void @Aig_ManStop(ptr noundef %56)
  %57 = load i32, ptr %10, align 4, !tbaa !10
  %58 = icmp ne i32 %57, 0
  br i1 %58, label %59, label %62

59:                                               ; preds = %50
  %60 = call i32 (ptr, ...) @printf(ptr noundef @.str.3)
  %61 = load ptr, ptr %6, align 8, !tbaa !3
  call void @Aig_ManPrintStats(ptr noundef %61)
  br label %62

62:                                               ; preds = %59, %50
  %63 = load i32, ptr %7, align 4, !tbaa !10
  %64 = icmp ne i32 %63, 0
  br i1 %64, label %65, label %76

65:                                               ; preds = %62
  %66 = load ptr, ptr %6, align 8, !tbaa !3
  store ptr %66, ptr %11, align 8, !tbaa !3
  %67 = load i32, ptr %8, align 4, !tbaa !10
  %68 = call ptr @Dar_ManBalance(ptr noundef %66, i32 noundef %67)
  store ptr %68, ptr %6, align 8, !tbaa !3
  %69 = load ptr, ptr %11, align 8, !tbaa !3
  call void @Aig_ManStop(ptr noundef %69)
  %70 = load i32, ptr %10, align 4, !tbaa !10
  %71 = icmp ne i32 %70, 0
  br i1 %71, label %72, label %75

72:                                               ; preds = %65
  %73 = call i32 (ptr, ...) @printf(ptr noundef @.str.1)
  %74 = load ptr, ptr %6, align 8, !tbaa !3
  call void @Aig_ManPrintStats(ptr noundef %74)
  br label %75

75:                                               ; preds = %72, %65
  br label %76

76:                                               ; preds = %75, %62
  %77 = load ptr, ptr %13, align 8, !tbaa !8
  %78 = getelementptr inbounds nuw %struct.Dar_RwrPar_t_, ptr %77, i32 0, i32 5
  store i32 1, ptr %78, align 4, !tbaa !35
  %79 = load ptr, ptr %15, align 8, !tbaa !26
  %80 = getelementptr inbounds nuw %struct.Dar_RefPar_t_, ptr %79, i32 0, i32 5
  store i32 1, ptr %80, align 4, !tbaa !36
  %81 = load ptr, ptr %6, align 8, !tbaa !3
  %82 = load ptr, ptr %13, align 8, !tbaa !8
  %83 = call i32 @Dar_ManRewrite(ptr noundef %81, ptr noundef %82)
  %84 = load ptr, ptr %6, align 8, !tbaa !3
  store ptr %84, ptr %11, align 8, !tbaa !3
  %85 = call ptr @Aig_ManDupDfs(ptr noundef %84)
  store ptr %85, ptr %6, align 8, !tbaa !3
  %86 = load ptr, ptr %11, align 8, !tbaa !3
  call void @Aig_ManStop(ptr noundef %86)
  %87 = load i32, ptr %10, align 4, !tbaa !10
  %88 = icmp ne i32 %87, 0
  br i1 %88, label %89, label %92

89:                                               ; preds = %76
  %90 = call i32 (ptr, ...) @printf(ptr noundef @.str.4)
  %91 = load ptr, ptr %6, align 8, !tbaa !3
  call void @Aig_ManPrintStats(ptr noundef %91)
  br label %92

92:                                               ; preds = %89, %76
  %93 = load ptr, ptr %6, align 8, !tbaa !3
  call void @llvm.lifetime.end.p0(i64 8, ptr %15) #9
  call void @llvm.lifetime.end.p0(i64 32, ptr %14) #9
  call void @llvm.lifetime.end.p0(i64 8, ptr %13) #9
  call void @llvm.lifetime.end.p0(i64 40, ptr %12) #9
  call void @llvm.lifetime.end.p0(i64 8, ptr %11) #9
  ret ptr %93
}