; Function Attrs: nounwind uwtable
define ptr @Dar_ManCompress(ptr noundef %0, i32 noundef %1, i32 noundef %2, i32 noundef %3, i32 noundef %4) local_unnamed_addr #0 {
  %6 = alloca %struct.Dar_RwrPar_t_, align 4
  %7 = alloca %struct.Dar_RefPar_t_, align 4
  call void @llvm.lifetime.start.p0(i64 40, ptr nonnull %6) #13
  call void @llvm.lifetime.start.p0(i64 32, ptr nonnull %7) #13
  call void @Dar_ManDefaultRwrParams(ptr noundef nonnull %6) #13
  call void @Dar_ManDefaultRefParams(ptr noundef nonnull %7) #13
  %8 = getelementptr inbounds nuw i8, ptr %6, i64 16
  store i32 %2, ptr %8, align 4, !tbaa !21
  %9 = getelementptr inbounds nuw i8, ptr %7, i64 16
  store i32 %2, ptr %9, align 4, !tbaa !23
  %10 = getelementptr inbounds nuw i8, ptr %6, i64 24
  store i32 %3, ptr %10, align 4, !tbaa !30
  %11 = getelementptr inbounds nuw i8, ptr %6, i64 32
  store i32 0, ptr %11, align 4, !tbaa !25
  %12 = getelementptr inbounds nuw i8, ptr %7, i64 24
  store i32 0, ptr %12, align 4, !tbaa !26
  %13 = call ptr @Aig_ManDupDfs(ptr noundef %0) #13
  %.not = icmp eq i32 %4, 0
  br i1 %.not, label %16, label %14

14:                                               ; preds = %5
  %15 = call i32 (ptr, ...) @printf(ptr noundef nonnull dereferenceable(1) @.str)
  call void @Aig_ManPrintStats(ptr noundef %13) #13
  br label %16

16:                                               ; preds = %14, %5
  %17 = call i32 @Dar_ManRewrite(ptr noundef %13, ptr noundef nonnull %6) #13
  %18 = call ptr @Aig_ManDupDfs(ptr noundef %13) #13
  call void @Aig_ManStop(ptr noundef %13) #13
  br i1 %.not, label %21, label %19

19:                                               ; preds = %16
  %20 = call i32 (ptr, ...) @printf(ptr noundef nonnull dereferenceable(1) @.str.2)
  call void @Aig_ManPrintStats(ptr noundef %18) #13
  br label %21

21:                                               ; preds = %19, %16
  %22 = call i32 @Dar_ManRefactor(ptr noundef %18, ptr noundef nonnull %7) #13
  %23 = call ptr @Aig_ManDupDfs(ptr noundef %18) #13
  call void @Aig_ManStop(ptr noundef %18) #13
  br i1 %.not, label %26, label %24

24:                                               ; preds = %21
  %25 = call i32 (ptr, ...) @printf(ptr noundef nonnull dereferenceable(1) @.str.3)
  call void @Aig_ManPrintStats(ptr noundef %23) #13
  br label %26

26:                                               ; preds = %24, %21
  %.not39 = icmp eq i32 %1, 0
  br i1 %.not39, label %31, label %27

27:                                               ; preds = %26
  %28 = call ptr @Dar_ManBalance(ptr noundef %23, i32 noundef %2) #13
  call void @Aig_ManStop(ptr noundef %23) #13
  br i1 %.not, label %31, label %29

29:                                               ; preds = %27
  %30 = call i32 (ptr, ...) @printf(ptr noundef nonnull dereferenceable(1) @.str.1)
  call void @Aig_ManPrintStats(ptr noundef %28) #13
  br label %31

31:                                               ; preds = %27, %29, %26
  %.0 = phi ptr [ %28, %29 ], [ %28, %27 ], [ %23, %26 ]
  %32 = getelementptr inbounds nuw i8, ptr %6, i64 20
  store i32 1, ptr %32, align 4, !tbaa !31
  %33 = getelementptr inbounds nuw i8, ptr %7, i64 20
  store i32 1, ptr %33, align 4, !tbaa !32
  %34 = call i32 @Dar_ManRewrite(ptr noundef %.0, ptr noundef nonnull %6) #13
  %35 = call ptr @Aig_ManDupDfs(ptr noundef %.0) #13
  call void @Aig_ManStop(ptr noundef %.0) #13
  br i1 %.not, label %38, label %36

36:                                               ; preds = %31
  %37 = call i32 (ptr, ...) @printf(ptr noundef nonnull dereferenceable(1) @.str.4)
  call void @Aig_ManPrintStats(ptr noundef %35) #13
  br label %38

38:                                               ; preds = %36, %31
  call void @llvm.lifetime.end.p0(i64 32, ptr nonnull %7) #13
  call void @llvm.lifetime.end.p0(i64 40, ptr nonnull %6) #13
  ret ptr %35
}